; Function Attrs: mustprogress nounwind uwtable
define dso_local void @_ZN5clang28MultiplexASTMutationListener22ResolvedOperatorDeleteEPKNS_17CXXDestructorDeclEPKNS_12FunctionDeclEPNS_4ExprE(ptr noundef nonnull readonly align 8 captures(none) dereferenceable(32) %0, ptr noundef %1, ptr noundef %2, ptr noundef %3) unnamed_addr #0 align 2 {
  %5 = getelementptr inbounds nuw i8, ptr %0, i64 8
  %6 = load ptr, ptr %5, align 8
  %7 = getelementptr inbounds nuw i8, ptr %0, i64 16
  %8 = load ptr, ptr %7, align 8
  %.not10 = icmp eq ptr %6, %8
  br i1 %.not10, label %._crit_edge, label %.lr.ph

.lr.ph:                                           ; preds = %4, %.lr.ph
  %.sroa.07.011 = phi ptr [ %13, %.lr.ph ], [ %6, %4 ]
  %9 = load ptr, ptr %.sroa.07.011, align 8
  %10 = load ptr, ptr %9, align 8
  %11 = getelementptr inbounds nuw i8, ptr %10, i64 80
  %12 = load ptr, ptr %11, align 8
  tail call void %12(ptr noundef nonnull align 8 dereferenceable(8) %9, ptr noundef %1, ptr noundef %2, ptr noundef %3) #14
  %13 = getelementptr inbounds nuw i8, ptr %.sroa.07.011, i64 8
  %.not = icmp eq ptr %13, %8
  br i1 %.not, label %._crit_edge, label %.lr.ph

._crit_edge:                                      ; preds = %.lr.ph, %4
  ret void
}